; Function Attrs: mustprogress nofree norecurse nosync nounwind willreturn memory(none) uwtable
define noundef i32 @_ZN11duDebugDraw9areaToColEj(ptr nocapture nonnull readnone align 8 %0, i32 noundef %1) unnamed_addr #0 align 2 {
  %3 = icmp eq i32 %1, 0
  br i1 %3, label %27, label %4

4:                                                ; preds = %2
  %5 = lshr i32 %1, 1
  %6 = and i32 %5, 1
  %7 = lshr i32 %1, 2
  %8 = and i32 %7, 2
  %9 = or disjoint i32 %6, %8
  %10 = and i32 %7, 1
  %11 = lshr i32 %1, 3
  %12 = and i32 %11, 2
  %13 = or disjoint i32 %10, %12
  %14 = and i32 %1, 1
  %15 = lshr i32 %1, 4
  %16 = and i32 %15, 2
  %17 = or disjoint i32 %16, %14
  %18 = mul nuw nsw i32 %9, 63
  %19 = add nuw nsw i32 %18, 63
  %20 = mul nuw nsw i32 %13, 16128
  %21 = add nuw nsw i32 %20, 16128
  %22 = mul nuw nsw i32 %17, 4128768
  %23 = add nuw nsw i32 %22, 4128768
  %24 = or i32 %21, %19
  %25 = or i32 %24, %23
  %26 = or i32 %25, -16777216
  br label %27

27:                                               ; preds = %2, %4
  %.0 = phi i32 [ %26, %4 ], [ -16384, %2 ]
  ret i32 %.0
}